; ModuleID = '29/1759.c'
source_filename = "29/1759.c"
target datalayout = "e-m:e-p270:32:32-p271:32:32-p272:64:64-i64:64-f80:128-n8:16:32:64-S128"
target triple = "x86_64-pc-linux-gnu"

@.str = private unnamed_addr constant [3 x i8] c"%d\00", align 1
@.str.1 = private unnamed_addr constant [7 x i8] c"%.3lf\0A\00", align 1

; Function Attrs: noinline nounwind uwtable
define dso_local i32 @main() #0 {
  %1 = alloca i32, align 4
  %2 = alloca [1000 x i32], align 16
  %3 = alloca [1000 x i32], align 16
  %4 = alloca i32, align 4
  %5 = alloca i32, align 4
  %6 = alloca i32, align 4
  %7 = alloca i32, align 4
  %8 = alloca i32, align 4
  %9 = alloca [1000 x double], align 16
  %10 = alloca [1000 x double], align 16
  store i32 0, i32* %1, align 4
  %11 = call i32 (i8*, ...) @__isoc99_scanf(i8* getelementptr inbounds ([3 x i8], [3 x i8]* @.str, i64 0, i64 0), i32* %5)
  %12 = getelementptr inbounds [1000 x i32], [1000 x i32]* %2, i64 0, i64 0
  store i32 2, i32* %12, align 16
  %13 = getelementptr inbounds [1000 x i32], [1000 x i32]* %2, i64 0, i64 1
  store i32 3, i32* %13, align 4
  %14 = getelementptr inbounds [1000 x i32], [1000 x i32]* %3, i64 0, i64 0
  store i32 1, i32* %14, align 16
  %15 = getelementptr inbounds [1000 x i32], [1000 x i32]* %3, i64 0, i64 1
  store i32 2, i32* %15, align 4
  %16 = getelementptr inbounds [1000 x i32], [1000 x i32]* %2, i64 0, i64 0
  %17 = load i32, i32* %16, align 16
  %18 = sitofp i32 %17 to double
  %19 = fmul double 1.000000e+00, %18
  %20 = getelementptr inbounds [1000 x i32], [1000 x i32]* %3, i64 0, i64 0
  %21 = load i32, i32* %20, align 16
  %22 = sitofp i32 %21 to double
  %23 = fdiv double %19, %22
  %24 = getelementptr inbounds [1000 x double], [1000 x double]* %9, i64 0, i64 0
  store double %23, double* %24, align 16
  %25 = getelementptr inbounds [1000 x i32], [1000 x i32]* %2, i64 0, i64 1
  %26 = load i32, i32* %25, align 4
  %27 = sitofp i32 %26 to double
  %28 = fmul double 1.000000e+00, %27
  %29 = getelementptr inbounds [1000 x i32], [1000 x i32]* %3, i64 0, i64 1
  %30 = load i32, i32* %29, align 4
  %31 = sitofp i32 %30 to double
  %32 = fdiv double %28, %31
  %33 = getelementptr inbounds [1000 x double], [1000 x double]* %9, i64 0, i64 1
  store double %32, double* %33, align 8
  store i32 0, i32* %7, align 4
  br label %34

34:                                               ; preds = %125, %0
  %35 = load i32, i32* %7, align 4
  %36 = load i32, i32* %5, align 4
  %37 = icmp slt i32 %35, %36
  br i1 %37, label %38, label %128

38:                                               ; preds = %34
  store i32 2, i32* %6, align 4
  %39 = load i32, i32* %7, align 4
  %40 = sext i32 %39 to i64
  %41 = getelementptr inbounds [1000 x double], [1000 x double]* %10, i64 0, i64 %40
  store double 0.000000e+00, double* %41, align 8
  %42 = call i32 (i8*, ...) @__isoc99_scanf(i8* getelementptr inbounds ([3 x i8], [3 x i8]* @.str, i64 0, i64 0), i32* %4)
  br label %43

43:                                               ; preds = %52, %38
  %44 = load i32, i32* %6, align 4
  %45 = icmp sge i32 %44, 2
  br i1 %45, label %46, label %50

46:                                               ; preds = %43
  %47 = load i32, i32* %6, align 4
  %48 = load i32, i32* %4, align 4
  %49 = icmp slt i32 %47, %48
  br label %50

50:                                               ; preds = %46, %43
  %51 = phi i1 [ false, %43 ], [ %49, %46 ]
  br i1 %51, label %52, label %98

52:                                               ; preds = %50
  %53 = load i32, i32* %6, align 4
  %54 = sub nsw i32 %53, 1
  %55 = sext i32 %54 to i64
  %56 = getelementptr inbounds [1000 x i32], [1000 x i32]* %2, i64 0, i64 %55
  %57 = load i32, i32* %56, align 4
  %58 = load i32, i32* %6, align 4
  %59 = sub nsw i32 %58, 2
  %60 = sext i32 %59 to i64
  %61 = getelementptr inbounds [1000 x i32], [1000 x i32]* %2, i64 0, i64 %60
  %62 = load i32, i32* %61, align 4
  %63 = add nsw i32 %57, %62
  %64 = load i32, i32* %6, align 4
  %65 = sext i32 %64 to i64
  %66 = getelementptr inbounds [1000 x i32], [1000 x i32]* %2, i64 0, i64 %65
  store i32 %63, i32* %66, align 4
  %67 = load i32, i32* %6, align 4
  %68 = sub nsw i32 %67, 1
  %69 = sext i32 %68 to i64
  %70 = getelementptr inbounds [1000 x i32], [1000 x i32]* %3, i64 0, i64 %69
  %71 = load i32, i32* %70, align 4
  %72 = load i32, i32* %6, align 4
  %73 = sub nsw i32 %72, 2
  %74 = sext i32 %73 to i64
  %75 = getelementptr inbounds [1000 x i32], [1000 x i32]* %3, i64 0, i64 %74
  %76 = load i32, i32* %75, align 4
  %77 = add nsw i32 %71, %76
  %78 = load i32, i32* %6, align 4
  %79 = sext i32 %78 to i64
  %80 = getelementptr inbounds [1000 x i32], [1000 x i32]* %3, i64 0, i64 %79
  store i32 %77, i32* %80, align 4
  %81 = load i32, i32* %6, align 4
  %82 = sext i32 %81 to i64
  %83 = getelementptr inbounds [1000 x i32], [1000 x i32]* %2, i64 0, i64 %82
  %84 = load i32, i32* %83, align 4
  %85 = sitofp i32 %84 to double
  %86 = fmul double 1.000000e+00, %85
  %87 = load i32, i32* %6, align 4
  %88 = sext i32 %87 to i64
  %89 = getelementptr inbounds [1000 x i32], [1000 x i32]* %3, i64 0, i64 %88
  %90 = load i32, i32* %89, align 4
  %91 = sitofp i32 %90 to double
  %92 = fdiv double %86, %91
  %93 = load i32, i32* %6, align 4
  %94 = sext i32 %93 to i64
  %95 = getelementptr inbounds [1000 x double], [1000 x double]* %9, i64 0, i64 %94
  store double %92, double* %95, align 8
  %96 = load i32, i32* %6, align 4
  %97 = add nsw i32 %96, 1
  store i32 %97, i32* %6, align 4
  br label %43

98:                                               ; preds = %50
  store i32 0, i32* %8, align 4
  br label %99

99:                                               ; preds = %116, %98
  %100 = load i32, i32* %8, align 4
  %101 = load i32, i32* %4, align 4
  %102 = icmp slt i32 %100, %101
  br i1 %102, label %103, label %119

103:                                              ; preds = %99
  %104 = load i32, i32* %7, align 4
  %105 = sext i32 %104 to i64
  %106 = getelementptr inbounds [1000 x double], [1000 x double]* %10, i64 0, i64 %105
  %107 = load double, double* %106, align 8
  %108 = load i32, i32* %8, align 4
  %109 = sext i32 %108 to i64
  %110 = getelementptr inbounds [1000 x double], [1000 x double]* %9, i64 0, i64 %109
  %111 = load double, double* %110, align 8
  %112 = fadd double %107, %111
  %113 = load i32, i32* %7, align 4
  %114 = sext i32 %113 to i64
  %115 = getelementptr inbounds [1000 x double], [1000 x double]* %10, i64 0, i64 %114
  store double %112, double* %115, align 8
  br label %116

116:                                              ; preds = %103
  %117 = load i32, i32* %8, align 4
  %118 = add nsw i32 %117, 1
  store i32 %118, i32* %8, align 4
  br label %99

119:                                              ; preds = %99
  %120 = load i32, i32* %7, align 4
  %121 = sext i32 %120 to i64
  %122 = getelementptr inbounds [1000 x double], [1000 x double]* %10, i64 0, i64 %121
  %123 = load double, double* %122, align 8
  %124 = call i32 (i8*, ...) @printf(i8* getelementptr inbounds ([7 x i8], [7 x i8]* @.str.1, i64 0, i64 0), double %123)
  br label %125

125:                                              ; preds = %119
  %126 = load i32, i32* %7, align 4
  %127 = add nsw i32 %126, 1
  store i32 %127, i32* %7, align 4
  br label %34

128:                                              ; preds = %34
  ret i32 0
}

declare dso_local i32 @__isoc99_scanf(i8*, ...) #1

declare dso_local i32 @printf(i8*, ...) #1


!llvm.module.flags = !{!0}
!llvm.ident = !{!1}

!0 = !{i32 1, !"wchar_size", i32 4}
!1 = !{!"clang version 10.0.0-4ubuntu1 "}
